target datalayout = "e-m:e-p270:32:32-p271:32:32-p272:64:64-i64:64-i128:128-f80:128-n8:16:32:64-S128"
target triple = "x86_64-unknown-linux-gnu"

%struct.redisServer = type { i32, i64, ptr, ptr, ptr, i32, i32, i32, i32, i32, ptr, ptr, ptr, ptr, ptr, ptr, i32, i32, i64, i32, i32, i32, i32, ptr, i32, i32, [41 x i8], i32, i64, i32, i32, i32, ptr, ptr, i32, i32, i64, ptr, ptr, ptr, ptr, [2 x i32], i32, i32, i32, i32, i32, [16 x ptr], i32, ptr, ptr, i32, [8 x %struct.connListener], i32, %struct.connListener, ptr, ptr, ptr, ptr, ptr, ptr, ptr, ptr, ptr, ptr, i32, ptr, i32, ptr, [3 x %struct.pause_event], [256 x i8], ptr, i64, i32, i32, i32, i32, i64, i32, i32, i32, i32, i32, i64, i64, i64, i64, i64, i64, i64, i64, i64, double, i64, i64, i64, i64, i64, i64, i64, i64, i64, i64, i64, i64, i64, i64, i64, i64, i64, i64, i64, i64, double, i64, i64, i64, i64, i64, ptr, i64, i64, i64, %struct.malloc_stats, i64, i64, i64, i64, i64, i64, i64, i64, i64, i64, i64, i64, double, [4 x i64], i64, i64, i64, i64, i64, i64, i64, i64, i64, i64, [7 x %struct.anon], i64, i64, i64, i64, i64, i64, [4 x %struct.durationStats], i32, i32, i32, i32, i32, i32, i32, i32, i32, i32, i64, i32, i32, i32, i32, i64, i64, i32, i32, i32, i32, i32, ptr, [3 x %struct.clientBufferLimitsConfig], i32, i32, ptr, i32, i32, i32, i32, ptr, ptr, i32, i32, i64, i64, i64, i64, i64, i32, i32, ptr, i32, i32, i64, i64, i64, i64, i64, i32, i32, i64, i32, i32, i32, i32, i32, i32, i32, i32, ptr, i32, i64, i64, i64, i64, ptr, i32, ptr, i32, i32, i32, i64, i64, i64, i64, i32, i32, i32, i32, i32, i32, ptr, i32, i32, ptr, i32, i32, i32, [2 x i32], i32, %struct.redisOpArray, i32, ptr, i32, ptr, i32, i32, i32, i32, i32, i32, i32, [41 x i8], [41 x i8], i64, i64, i64, i64, i32, i32, ptr, i64, i64, i64, i32, i32, i32, i32, i32, i32, i32, i64, ptr, ptr, ptr, ptr, i32, i32, ptr, ptr, i32, i32, i64, i64, i64, ptr, i32, ptr, i64, i32, i32, i32, i64, i32, i32, i32, i32, ptr, i32, i32, [41 x i8], i64, i32, ptr, i32, i32, i64, i64, i32, i32, i32, i32, i32, i64, [3 x i32], i32, i32, i32, [9 x i32], ptr, ptr, i32, i64, ptr, ptr, i32, i32, i32, i32, i64, i64, i64, i64, i64, i64, i64, i64, i64, i64, i32, i32, i64, i64, i32, i64, i64, i64, i64, i64, ptr, ptr, i32, ptr, i32, i32, i32, i64, i64, ptr, ptr, i32, i32, i32, i32, i32, ptr, ptr, ptr, i32, i32, i32, i32, i32, i32, i32, i64, i32, i64, i32, i32, i32, i32, i32, i32, i32, i64, ptr, ptr, i64, ptr, i32, %struct.aclInfo, i32, i64, i32, i32, i32, %struct.redisTLSContextConfig, ptr, ptr, ptr, ptr, ptr, i64, i32, ptr, i32, i32, i32, i64, i32, ptr }
%struct.connListener = type { [16 x i32], i32, ptr, i32, i32, ptr, ptr }
%struct.pause_event = type { i32, i64 }
%struct.malloc_stats = type { i64, i64, i64, i64, i64 }
%struct.anon = type { i64, i64, [16 x i64], i32 }
%struct.durationStats = type { i64, i64, i64 }
%struct.clientBufferLimitsConfig = type { i64, i64, i64 }
%struct.redisOpArray = type { ptr, i32, i32 }
%struct.aclInfo = type { i64, i64, i64, i64 }
%struct.redisTLSContextConfig = type { ptr, ptr, ptr, ptr, ptr, ptr, ptr, ptr, ptr, ptr, ptr, ptr, i32, i32, i32, i32 }

@server = dso_local global %struct.redisServer zeroinitializer, align 8
@.str.143 = private unnamed_addr constant [64 x i8] c"Warning: Could not create server TCP listening socket %s:%d: %s\00", align 1

; Function Attrs: nounwind uwtable
define dso_local void @closeListener(ptr noundef %sfd) #0 {
entry:
  %sfd.addr = alloca ptr, align 8
  %j = alloca i32, align 4
  store ptr %sfd, ptr %sfd.addr, align 8
  store i32 0, ptr %j, align 4
  br label %for.cond

for.cond:                                         ; preds = %for.inc, %entry
  %0 = load i32, ptr %j, align 4
  %1 = load ptr, ptr %sfd.addr, align 8
  %count = getelementptr inbounds %struct.connListener, ptr %1, i32 0, i32 1
  %2 = load i32, ptr %count, align 8
  %cmp = icmp slt i32 %0, %2
  br i1 %cmp, label %for.body, label %for.end

for.body:                                         ; preds = %for.cond
  %3 = load ptr, ptr %sfd.addr, align 8
  %fd = getelementptr inbounds %struct.connListener, ptr %3, i32 0, i32 0
  %4 = load i32, ptr %j, align 4
  %idxprom = sext i32 %4 to i64
  %arrayidx = getelementptr inbounds [16 x i32], ptr %fd, i64 0, i64 %idxprom
  %5 = load i32, ptr %arrayidx, align 4
  %cmp1 = icmp eq i32 %5, -1
  br i1 %cmp1, label %if.then, label %if.end

if.then:                                          ; preds = %for.body
  br label %for.inc

if.end:                                           ; preds = %for.body
  %6 = load ptr, ptr getelementptr inbounds (%struct.redisServer, ptr @server, i32 0, i32 14), align 8
  %7 = load ptr, ptr %sfd.addr, align 8
  %fd2 = getelementptr inbounds %struct.connListener, ptr %7, i32 0, i32 0
  %8 = load i32, ptr %j, align 4
  %idxprom3 = sext i32 %8 to i64
  %arrayidx4 = getelementptr inbounds [16 x i32], ptr %fd2, i64 0, i64 %idxprom3
  %9 = load i32, ptr %arrayidx4, align 4
  call void @aeDeleteFileEvent(ptr noundef %6, i32 noundef %9, i32 noundef 1)
  %10 = load ptr, ptr %sfd.addr, align 8
  %fd5 = getelementptr inbounds %struct.connListener, ptr %10, i32 0, i32 0
  %11 = load i32, ptr %j, align 4
  %idxprom6 = sext i32 %11 to i64
  %arrayidx7 = getelementptr inbounds [16 x i32], ptr %fd5, i64 0, i64 %idxprom6
  %12 = load i32, ptr %arrayidx7, align 4
  %call = call i32 @close(i32 noundef %12)
  br label %for.inc

for.inc:                                          ; preds = %if.end, %if.then
  %13 = load i32, ptr %j, align 4
  %inc = add nsw i32 %13, 1
  store i32 %inc, ptr %j, align 4
  br label %for.cond, !llvm.loop !29

for.end:                                          ; preds = %for.cond
  %14 = load ptr, ptr %sfd.addr, align 8
  %count8 = getelementptr inbounds %struct.connListener, ptr %14, i32 0, i32 1
  store i32 0, ptr %count8, align 8
  ret void
}

; Function Attrs: nounwind uwtable
define dso_local i32 @listenToPort(ptr noundef %sfd) #0 {
entry:
  %retval = alloca i32, align 4
  %sfd.addr = alloca ptr, align 8
  %j = alloca i32, align 4
  %port = alloca i32, align 4
  %bindaddr = alloca ptr, align 8
  %addr = alloca ptr, align 8
  %optional = alloca i32, align 4
  %net_errno = alloca i32, align 4
  store ptr %sfd, ptr %sfd.addr, align 8
  %0 = load ptr, ptr %sfd.addr, align 8
  %port1 = getelementptr inbounds %struct.connListener, ptr %0, i32 0, i32 4
  %1 = load i32, ptr %port1, align 4
  store i32 %1, ptr %port, align 4
  %2 = load ptr, ptr %sfd.addr, align 8
  %bindaddr2 = getelementptr inbounds %struct.connListener, ptr %2, i32 0, i32 2
  %3 = load ptr, ptr %bindaddr2, align 8
  store ptr %3, ptr %bindaddr, align 8
  %4 = load ptr, ptr %sfd.addr, align 8
  %bindaddr_count = getelementptr inbounds %struct.connListener, ptr %4, i32 0, i32 3
  %5 = load i32, ptr %bindaddr_count, align 8
  %cmp = icmp eq i32 %5, 0
  br i1 %cmp, label %if.then, label %if.end

if.then:                                          ; preds = %entry
  store i32 0, ptr %retval, align 4
  br label %return

if.end:                                           ; preds = %entry
  store i32 0, ptr %j, align 4
  br label %for.cond

for.cond:                                         ; preds = %for.inc, %if.end
  %6 = load i32, ptr %j, align 4
  %7 = load ptr, ptr %sfd.addr, align 8
  %bindaddr_count3 = getelementptr inbounds %struct.connListener, ptr %7, i32 0, i32 3
  %8 = load i32, ptr %bindaddr_count3, align 8
  %cmp4 = icmp slt i32 %6, %8
  br i1 %cmp4, label %for.body, label %for.end

for.body:                                         ; preds = %for.cond
  %9 = load ptr, ptr %bindaddr, align 8
  %10 = load i32, ptr %j, align 4
  %idxprom = sext i32 %10 to i64
  %arrayidx = getelementptr inbounds ptr, ptr %9, i64 %idxprom
  %11 = load ptr, ptr %arrayidx, align 8
  store ptr %11, ptr %addr, align 8
  %12 = load ptr, ptr %addr, align 8
  %13 = load i8, ptr %12, align 1
  %conv = sext i8 %13 to i32
  %cmp5 = icmp eq i32 %conv, 45
  %conv6 = zext i1 %cmp5 to i32
  store i32 %conv6, ptr %optional, align 4
  %14 = load i32, ptr %optional, align 4
  %tobool = icmp ne i32 %14, 0
  br i1 %tobool, label %if.then7, label %if.end8

if.then7:                                         ; preds = %for.body
  %15 = load ptr, ptr %addr, align 8
  %incdec.ptr = getelementptr inbounds i8, ptr %15, i32 1
  store ptr %incdec.ptr, ptr %addr, align 8
  br label %if.end8

if.end8:                                          ; preds = %if.then7, %for.body
  %16 = load ptr, ptr %addr, align 8
  %call = call ptr @strchr(ptr noundef %16, i32 noundef 58) #14
  %tobool9 = icmp ne ptr %call, null
  br i1 %tobool9, label %if.then10, label %if.else

if.then10:                                        ; preds = %if.end8
  %17 = load i32, ptr %port, align 4
  %18 = load ptr, ptr %addr, align 8
  %19 = load i32, ptr getelementptr inbounds (%struct.redisServer, ptr @server, i32 0, i32 46), align 8
  %call11 = call i32 @anetTcp6Server(ptr noundef getelementptr inbounds (%struct.redisServer, ptr @server, i32 0, i32 70), i32 noundef %17, ptr noundef %18, i32 noundef %19)
  %20 = load ptr, ptr %sfd.addr, align 8
  %fd = getelementptr inbounds %struct.connListener, ptr %20, i32 0, i32 0
  %21 = load ptr, ptr %sfd.addr, align 8
  %count = getelementptr inbounds %struct.connListener, ptr %21, i32 0, i32 1
  %22 = load i32, ptr %count, align 8
  %idxprom12 = sext i32 %22 to i64
  %arrayidx13 = getelementptr inbounds [16 x i32], ptr %fd, i64 0, i64 %idxprom12
  store i32 %call11, ptr %arrayidx13, align 4
  br label %if.end19

if.else:                                          ; preds = %if.end8
  %23 = load i32, ptr %port, align 4
  %24 = load ptr, ptr %addr, align 8
  %25 = load i32, ptr getelementptr inbounds (%struct.redisServer, ptr @server, i32 0, i32 46), align 8
  %call14 = call i32 @anetTcpServer(ptr noundef getelementptr inbounds (%struct.redisServer, ptr @server, i32 0, i32 70), i32 noundef %23, ptr noundef %24, i32 noundef %25)
  %26 = load ptr, ptr %sfd.addr, align 8
  %fd15 = getelementptr inbounds %struct.connListener, ptr %26, i32 0, i32 0
  %27 = load ptr, ptr %sfd.addr, align 8
  %count16 = getelementptr inbounds %struct.connListener, ptr %27, i32 0, i32 1
  %28 = load i32, ptr %count16, align 8
  %idxprom17 = sext i32 %28 to i64
  %arrayidx18 = getelementptr inbounds [16 x i32], ptr %fd15, i64 0, i64 %idxprom17
  store i32 %call14, ptr %arrayidx18, align 4
  br label %if.end19

if.end19:                                         ; preds = %if.else, %if.then10
  %29 = load ptr, ptr %sfd.addr, align 8
  %fd20 = getelementptr inbounds %struct.connListener, ptr %29, i32 0, i32 0
  %30 = load ptr, ptr %sfd.addr, align 8
  %count21 = getelementptr inbounds %struct.connListener, ptr %30, i32 0, i32 1
  %31 = load i32, ptr %count21, align 8
  %idxprom22 = sext i32 %31 to i64
  %arrayidx23 = getelementptr inbounds [16 x i32], ptr %fd20, i64 0, i64 %idxprom22
  %32 = load i32, ptr %arrayidx23, align 4
  %cmp24 = icmp eq i32 %32, -1
  br i1 %cmp24, label %if.then26, label %if.end52

if.then26:                                        ; preds = %if.end19
  %call27 = call ptr @__errno_location() #17
  %33 = load i32, ptr %call27, align 4
  store i32 %33, ptr %net_errno, align 4
  br label %do.body

do.body:                                          ; preds = %if.then26
  %34 = load i32, ptr getelementptr inbounds (%struct.redisServer, ptr @server, i32 0, i32 156), align 8
  %cmp28 = icmp slt i32 3, %34
  br i1 %cmp28, label %if.then30, label %if.end31

if.then30:                                        ; preds = %do.body
  br label %do.end

if.end31:                                         ; preds = %do.body
  %35 = load ptr, ptr %addr, align 8
  %36 = load i32, ptr %port, align 4
  call void (i32, ptr, ...) @_serverLog(i32 noundef 3, ptr noundef @.str.143, ptr noundef %35, i32 noundef %36, ptr noundef getelementptr inbounds (%struct.redisServer, ptr @server, i32 0, i32 70))
  br label %do.end

do.end:                                           ; preds = %if.end31, %if.then30
  %37 = load i32, ptr %net_errno, align 4
  %cmp32 = icmp eq i32 %37, 99
  br i1 %cmp32, label %land.lhs.true, label %if.end36

land.lhs.true:                                    ; preds = %do.end
  %38 = load i32, ptr %optional, align 4
  %tobool34 = icmp ne i32 %38, 0
  br i1 %tobool34, label %if.then35, label %if.end36

if.then35:                                        ; preds = %land.lhs.true
  br label %for.inc

if.end36:                                         ; preds = %land.lhs.true, %do.end
  %39 = load i32, ptr %net_errno, align 4
  %cmp37 = icmp eq i32 %39, 92
  br i1 %cmp37, label %if.then50, label %lor.lhs.false

lor.lhs.false:                                    ; preds = %if.end36
  %40 = load i32, ptr %net_errno, align 4
  %cmp39 = icmp eq i32 %40, 93
  br i1 %cmp39, label %if.then50, label %lor.lhs.false41

lor.lhs.false41:                                  ; preds = %lor.lhs.false
  %41 = load i32, ptr %net_errno, align 4
  %cmp42 = icmp eq i32 %41, 94
  br i1 %cmp42, label %if.then50, label %lor.lhs.false44

lor.lhs.false44:                                  ; preds = %lor.lhs.false41
  %42 = load i32, ptr %net_errno, align 4
  %cmp45 = icmp eq i32 %42, 96
  br i1 %cmp45, label %if.then50, label %lor.lhs.false47

lor.lhs.false47:                                  ; preds = %lor.lhs.false44
  %43 = load i32, ptr %net_errno, align 4
  %cmp48 = icmp eq i32 %43, 97
  br i1 %cmp48, label %if.then50, label %if.end51

if.then50:                                        ; preds = %lor.lhs.false47, %lor.lhs.false44, %lor.lhs.false41, %lor.lhs.false, %if.end36
  br label %for.inc

if.end51:                                         ; preds = %lor.lhs.false47
  %44 = load ptr, ptr %sfd.addr, align 8
  call void @closeListener(ptr noundef %44)
  store i32 -1, ptr %retval, align 4
  br label %return

if.end52:                                         ; preds = %if.end19
  %45 = load i32, ptr getelementptr inbounds (%struct.redisServer, ptr @server, i32 0, i32 53), align 8
  %cmp53 = icmp ugt i32 %45, 0
  br i1 %cmp53, label %if.then55, label %if.end61

if.then55:                                        ; preds = %if.end52
  %46 = load ptr, ptr %sfd.addr, align 8
  %fd56 = getelementptr inbounds %struct.connListener, ptr %46, i32 0, i32 0
  %47 = load ptr, ptr %sfd.addr, align 8
  %count57 = getelementptr inbounds %struct.connListener, ptr %47, i32 0, i32 1
  %48 = load i32, ptr %count57, align 8
  %idxprom58 = sext i32 %48 to i64
  %arrayidx59 = getelementptr inbounds [16 x i32], ptr %fd56, i64 0, i64 %idxprom58
  %49 = load i32, ptr %arrayidx59, align 4
  %50 = load i32, ptr getelementptr inbounds (%struct.redisServer, ptr @server, i32 0, i32 53), align 8
  %call60 = call i32 @anetSetSockMarkId(ptr noundef null, i32 noundef %49, i32 noundef %50)
  br label %if.end61

if.end61:                                         ; preds = %if.then55, %if.end52
  %51 = load ptr, ptr %sfd.addr, align 8
  %fd62 = getelementptr inbounds %struct.connListener, ptr %51, i32 0, i32 0
  %52 = load ptr, ptr %sfd.addr, align 8
  %count63 = getelementptr inbounds %struct.connListener, ptr %52, i32 0, i32 1
  %53 = load i32, ptr %count63, align 8
  %idxprom64 = sext i32 %53 to i64
  %arrayidx65 = getelementptr inbounds [16 x i32], ptr %fd62, i64 0, i64 %idxprom64
  %54 = load i32, ptr %arrayidx65, align 4
  %call66 = call i32 @anetNonBlock(ptr noundef null, i32 noundef %54)
  %55 = load ptr, ptr %sfd.addr, align 8
  %fd67 = getelementptr inbounds %struct.connListener, ptr %55, i32 0, i32 0
  %56 = load ptr, ptr %sfd.addr, align 8
  %count68 = getelementptr inbounds %struct.connListener, ptr %56, i32 0, i32 1
  %57 = load i32, ptr %count68, align 8
  %idxprom69 = sext i32 %57 to i64
  %arrayidx70 = getelementptr inbounds [16 x i32], ptr %fd67, i64 0, i64 %idxprom69
  %58 = load i32, ptr %arrayidx70, align 4
  %call71 = call i32 @anetCloexec(i32 noundef %58)
  %59 = load ptr, ptr %sfd.addr, align 8
  %count72 = getelementptr inbounds %struct.connListener, ptr %59, i32 0, i32 1
  %60 = load i32, ptr %count72, align 8
  %inc = add nsw i32 %60, 1
  store i32 %inc, ptr %count72, align 8
  br label %for.inc

for.inc:                                          ; preds = %if.end61, %if.then50, %if.then35
  %61 = load i32, ptr %j, align 4
  %inc73 = add nsw i32 %61, 1
  store i32 %inc73, ptr %j, align 4
  br label %for.cond, !llvm.loop !32

for.end:                                          ; preds = %for.cond
  store i32 0, ptr %retval, align 4
  br label %return

return:                                           ; preds = %for.end, %if.end51, %if.then
  %62 = load i32, ptr %retval, align 4
  ret i32 %62
}