; Function Attrs: nounwind uwtable
define dso_local noundef i32 @listenToPort(ptr nocapture noundef %sfd) local_unnamed_addr #0 {
entry:
  %port1 = getelementptr inbounds i8, ptr %sfd, i64 84
  %0 = load i32, ptr %port1, align 4
  %bindaddr2 = getelementptr inbounds i8, ptr %sfd, i64 72
  %1 = load ptr, ptr %bindaddr2, align 8
  %bindaddr_count = getelementptr inbounds i8, ptr %sfd, i64 80
  %2 = load i32, ptr %bindaddr_count, align 8
  %cmp438 = icmp sgt i32 %2, 0
  br i1 %cmp438, label %for.body.lr.ph, label %return

for.body.lr.ph:                                   ; preds = %entry
  %count = getelementptr inbounds i8, ptr %sfd, i64 64
  br label %for.body

for.body:                                         ; preds = %for.body.lr.ph, %for.inc
  %indvars.iv = phi i64 [ 0, %for.body.lr.ph ], [ %indvars.iv.next, %for.inc ]
  %arrayidx = getelementptr inbounds ptr, ptr %1, i64 %indvars.iv
  %3 = load ptr, ptr %arrayidx, align 8
  %4 = load i8, ptr %3, align 1
  %cmp5 = icmp eq i8 %4, 45
  %spec.select.idx = zext i1 %cmp5 to i64
  %spec.select = getelementptr inbounds i8, ptr %3, i64 %spec.select.idx
  %call = tail call ptr @strchr(ptr noundef nonnull dereferenceable(1) %spec.select, i32 noundef 58) #39
  %tobool9.not = icmp eq ptr %call, null
  %5 = load i32, ptr getelementptr inbounds (%struct.redisServer, ptr @server, i64 0, i32 46), align 8
  br i1 %tobool9.not, label %if.else, label %if.then10

if.then10:                                        ; preds = %for.body
  %call11 = tail call i32 @anetTcp6Server(ptr noundef nonnull getelementptr inbounds (%struct.redisServer, ptr @server, i64 0, i32 70), i32 noundef %0, ptr noundef nonnull %spec.select, i32 noundef %5) #38
  br label %if.end19

if.else:                                          ; preds = %for.body
  %call14 = tail call i32 @anetTcpServer(ptr noundef nonnull getelementptr inbounds (%struct.redisServer, ptr @server, i64 0, i32 70), i32 noundef %0, ptr noundef nonnull %spec.select, i32 noundef %5) #38
  br label %if.end19

if.end19:                                         ; preds = %if.else, %if.then10
  %call14.sink = phi i32 [ %call14, %if.else ], [ %call11, %if.then10 ]
  %6 = load i32, ptr %count, align 8
  %idxprom17 = sext i32 %6 to i64
  %arrayidx18 = getelementptr inbounds [16 x i32], ptr %sfd, i64 0, i64 %idxprom17
  store i32 %call14.sink, ptr %arrayidx18, align 4
  %7 = load i32, ptr %count, align 8
  %idxprom22 = sext i32 %7 to i64
  %arrayidx23 = getelementptr inbounds [16 x i32], ptr %sfd, i64 0, i64 %idxprom22
  %8 = load i32, ptr %arrayidx23, align 4
  %cmp24 = icmp eq i32 %8, -1
  br i1 %cmp24, label %if.then26, label %if.end52

if.then26:                                        ; preds = %if.end19
  %call27 = tail call ptr @__errno_location() #41
  %9 = load i32, ptr %call27, align 4
  %10 = load i32, ptr getelementptr inbounds (%struct.redisServer, ptr @server, i64 0, i32 156), align 8
  %cmp28 = icmp sgt i32 %10, 3
  br i1 %cmp28, label %do.end, label %if.end31

if.end31:                                         ; preds = %if.then26
  tail call void (i32, ptr, ...) @_serverLog(i32 noundef 3, ptr noundef nonnull @.str.143, ptr noundef nonnull %spec.select, i32 noundef %0, ptr noundef nonnull getelementptr inbounds (%struct.redisServer, ptr @server, i64 0, i32 70))
  br label %do.end

do.end:                                           ; preds = %if.then26, %if.end31
  %cmp32 = icmp eq i32 %9, 99
  %or.cond = and i1 %cmp5, %cmp32
  br i1 %or.cond, label %for.inc, label %if.end36

if.end36:                                         ; preds = %do.end
  switch i32 %9, label %if.end51 [
    i32 97, label %for.inc
    i32 96, label %for.inc
    i32 94, label %for.inc
    i32 93, label %for.inc
    i32 92, label %for.inc
  ]

if.end51:                                         ; preds = %if.end36
  %11 = load i32, ptr %count, align 8
  %cmp9.i = icmp sgt i32 %11, 0
  br i1 %cmp9.i, label %for.body.i, label %closeListener.exit

for.body.i:                                       ; preds = %if.end51, %for.inc.i
  %12 = phi i32 [ %16, %for.inc.i ], [ %11, %if.end51 ]
  %indvars.iv.i = phi i64 [ %indvars.iv.next.i, %for.inc.i ], [ 0, %if.end51 ]
  %arrayidx.i = getelementptr inbounds [16 x i32], ptr %sfd, i64 0, i64 %indvars.iv.i
  %13 = load i32, ptr %arrayidx.i, align 4
  %cmp1.i = icmp eq i32 %13, -1
  br i1 %cmp1.i, label %for.inc.i, label %if.end.i

if.end.i:                                         ; preds = %for.body.i
  %14 = load ptr, ptr getelementptr inbounds (%struct.redisServer, ptr @server, i64 0, i32 14), align 8
  tail call void @aeDeleteFileEvent(ptr noundef %14, i32 noundef %13, i32 noundef 1) #38
  %15 = load i32, ptr %arrayidx.i, align 4
  %call.i = tail call i32 @close(i32 noundef %15) #38
  %.pre.i = load i32, ptr %count, align 8
  br label %for.inc.i

for.inc.i:                                        ; preds = %if.end.i, %for.body.i
  %16 = phi i32 [ %12, %for.body.i ], [ %.pre.i, %if.end.i ]
  %indvars.iv.next.i = add nuw nsw i64 %indvars.iv.i, 1
  %17 = sext i32 %16 to i64
  %cmp.i = icmp slt i64 %indvars.iv.next.i, %17
  br i1 %cmp.i, label %for.body.i, label %closeListener.exit, !llvm.loop !29

closeListener.exit:                               ; preds = %for.inc.i, %if.end51
  store i32 0, ptr %count, align 8
  br label %return

if.end52:                                         ; preds = %if.end19
  %18 = load i32, ptr getelementptr inbounds (%struct.redisServer, ptr @server, i64 0, i32 53), align 8
  %cmp53.not = icmp eq i32 %18, 0
  br i1 %cmp53.not, label %if.end61, label %if.then55

if.then55:                                        ; preds = %if.end52
  %call60 = tail call i32 @anetSetSockMarkId(ptr noundef null, i32 noundef %8, i32 noundef %18) #38
  %.pre = load i32, ptr %count, align 8
  %idxprom64.phi.trans.insert = sext i32 %.pre to i64
  %arrayidx65.phi.trans.insert = getelementptr inbounds [16 x i32], ptr %sfd, i64 0, i64 %idxprom64.phi.trans.insert
  %.pre41 = load i32, ptr %arrayidx65.phi.trans.insert, align 4
  br label %if.end61

if.end61:                                         ; preds = %if.then55, %if.end52
  %19 = phi i32 [ %.pre41, %if.then55 ], [ %8, %if.end52 ]
  %call66 = tail call i32 @anetNonBlock(ptr noundef null, i32 noundef %19) #38
  %20 = load i32, ptr %count, align 8
  %idxprom69 = sext i32 %20 to i64
  %arrayidx70 = getelementptr inbounds [16 x i32], ptr %sfd, i64 0, i64 %idxprom69
  %21 = load i32, ptr %arrayidx70, align 4
  %call71 = tail call i32 @anetCloexec(i32 noundef %21) #38
  %22 = load i32, ptr %count, align 8
  %inc = add nsw i32 %22, 1
  store i32 %inc, ptr %count, align 8
  br label %for.inc

for.inc:                                          ; preds = %if.end36, %if.end36, %if.end36, %if.end36, %if.end36, %do.end, %if.end61
  %indvars.iv.next = add nuw nsw i64 %indvars.iv, 1
  %23 = load i32, ptr %bindaddr_count, align 8
  %24 = sext i32 %23 to i64
  %cmp4 = icmp slt i64 %indvars.iv.next, %24
  br i1 %cmp4, label %for.body, label %return, !llvm.loop !32

return:                                           ; preds = %for.inc, %entry, %closeListener.exit
  %retval.0 = phi i32 [ -1, %closeListener.exit ], [ 0, %entry ], [ 0, %for.inc ]
  ret i32 %retval.0
}